#include <math.h>
#include <stdio.h>
#include <stdlib.h>
#include <string.h>


int main()
{
    char s[20],w[50],a[50][20];
    scanf("%s%s",s,w);
    int l1=strlen(s),l2=strlen(w),i,j;
    for(i=0;i<=l2-l1;i++)
    {
        for(j=0;j<=l1-1;j++)
            a[i][j]=w[i+j];
        a[i][l1]='\0';
    }
    for(i=0;i<=l2-l1;i++)
    {
        if(strcmp(a[i],s)==0)
        { printf("%d",i);break;}
    }
   
}